target datalayout = "e-m:e-p270:32:32-p271:32:32-p272:64:64-i64:64-i128:128-f80:128-n8:16:32:64-S128"
target triple = "x86_64-pc-linux-gnu"

%"class.std::function.522" = type { %"class.std::_Function_base", ptr }
%"class.std::_Function_base" = type { %"union.std::_Any_data", ptr }
%"union.std::_Any_data" = type { %"union.std::_Nocopy_types" }
%"union.std::_Nocopy_types" = type { { i64, i64 } }
%class.anon.557 = type { ptr }
%"class.std::function.519" = type { %"class.std::_Function_base", ptr }

; Function Attrs: mustprogress nounwind uwtable
define linkonce_odr noundef ptr @_ZNSt9_Any_data9_M_accessEv(ptr noundef nonnull align 8 dereferenceable(16) %0) #2 comdat align 2 {
  %2 = alloca ptr, align 8
  store ptr %0, ptr %2, align 8, !tbaa !690
  %3 = load ptr, ptr %2, align 8
  %4 = getelementptr inbounds [16 x i8], ptr %3, i64 0, i64 0
  ret ptr %4
}

; Function Attrs: mustprogress nounwind uwtable
define internal void @"_ZNSt14_Function_base13_Base_managerIZN3gmx14MttkBoxScaling12scheduleTaskEldRKSt8functionIFvS3_IFvvEEEEE3$_0E9_M_createISA_EEvRSt9_Any_dataOT_St17integral_constantIbLb1EE"(ptr noundef nonnull align 8 dereferenceable(16) %0, ptr noundef nonnull align 8 dereferenceable(8) %1) #2 align 2 {
  %3 = alloca ptr, align 8
  %4 = alloca ptr, align 8
  store ptr %0, ptr %3, align 8, !tbaa !690
  store ptr %1, ptr %4, align 8, !tbaa !223
  %5 = load ptr, ptr %3, align 8, !tbaa !690
  %6 = call noundef ptr @_ZNSt9_Any_data9_M_accessEv(ptr noundef nonnull align 8 dereferenceable(16) %5) #21
  %7 = load ptr, ptr %4, align 8, !tbaa !223
  call void @llvm.memcpy.p0.p0.i64(ptr align 8 %6, ptr align 8 %7, i64 8, i1 false), !tbaa.struct !1160
  ret void
}

; Function Attrs: mustprogress nounwind uwtable
define linkonce_odr noundef zeroext i1 @_ZNKSt14_Function_base8_M_emptyEv(ptr noundef nonnull align 8 dereferenceable(24) %0) #2 comdat align 2 {
  %2 = alloca ptr, align 8
  store ptr %0, ptr %2, align 8, !tbaa !391
  %3 = load ptr, ptr %2, align 8
  %4 = getelementptr inbounds nuw %"class.std::_Function_base", ptr %3, i32 0, i32 1
  %5 = load ptr, ptr %4, align 8, !tbaa !257
  %6 = icmp ne ptr %5, null
  %7 = xor i1 %6, true
  ret i1 %7
}

; Function Attrs: mustprogress nounwind uwtable
define internal void @"_ZNSt14_Function_base13_Base_managerIZN3gmx14MttkBoxScaling12scheduleTaskEldRKSt8functionIFvS3_IFvvEEEEE3$_0E15_M_init_functorISA_EEvRSt9_Any_dataOT_"(ptr noundef nonnull align 8 dereferenceable(16) %0, ptr noundef nonnull align 8 dereferenceable(8) %1) #2 align 2 personality ptr @__gxx_personality_v0 {
  %3 = alloca ptr, align 8
  %4 = alloca ptr, align 8
  store ptr %0, ptr %3, align 8, !tbaa !690
  store ptr %1, ptr %4, align 8, !tbaa !223
  %5 = load ptr, ptr %3, align 8, !tbaa !690
  %6 = load ptr, ptr %4, align 8, !tbaa !223
  invoke void @"_ZNSt14_Function_base13_Base_managerIZN3gmx14MttkBoxScaling12scheduleTaskEldRKSt8functionIFvS3_IFvvEEEEE3$_0E9_M_createISA_EEvRSt9_Any_dataOT_St17integral_constantIbLb1EE"(ptr noundef nonnull align 8 dereferenceable(16) %5, ptr noundef nonnull align 8 dereferenceable(8) %6)
          to label %7 unwind label %8

7:                                                ; preds = %2
  ret void

8:                                                ; preds = %2
  %9 = landingpad { ptr, i32 }
          catch ptr null
  %10 = extractvalue { ptr, i32 } %9, 0
  call void @__clang_call_terminate(ptr %10) #24
  unreachable
}

; Function Attrs: mustprogress nounwind uwtable
define internal noundef zeroext i1 @"_ZNSt14_Function_base13_Base_managerIZN3gmx14MttkBoxScaling12scheduleTaskEldRKSt8functionIFvS3_IFvvEEEEE3$_0E21_M_not_empty_functionISA_EEbRKT_"(ptr noundef nonnull align 8 dereferenceable(8) %0) #2 align 2 {
  %2 = alloca ptr, align 8
  store ptr %0, ptr %2, align 8, !tbaa !223
  ret i1 true
}

; Function Attrs: mustprogress nounwind uwtable
define linkonce_odr void @_ZNSt14_Function_baseC2Ev(ptr noundef nonnull align 8 dereferenceable(24) %0) unnamed_addr #2 comdat align 2 {
  %2 = alloca ptr, align 8
  store ptr %0, ptr %2, align 8, !tbaa !391
  %3 = load ptr, ptr %2, align 8
  %4 = getelementptr inbounds nuw %"class.std::_Function_base", ptr %3, i32 0, i32 0
  store ptr null, ptr %4, align 8, !tbaa !325
  %5 = getelementptr inbounds nuw %"class.std::_Function_base", ptr %3, i32 0, i32 1
  store ptr null, ptr %5, align 8, !tbaa !257
  ret void
}

; Function Attrs: mustprogress nounwind uwtable
define linkonce_odr void @_ZNSt14_Function_baseD2Ev(ptr noundef nonnull align 8 dereferenceable(24) %0) unnamed_addr #2 comdat align 2 personality ptr @__gxx_personality_v0 {
  %2 = alloca ptr, align 8
  store ptr %0, ptr %2, align 8, !tbaa !391
  %3 = load ptr, ptr %2, align 8
  %4 = getelementptr inbounds nuw %"class.std::_Function_base", ptr %3, i32 0, i32 1
  %5 = load ptr, ptr %4, align 8, !tbaa !257
  %6 = icmp ne ptr %5, null
  br i1 %6, label %7, label %14

7:                                                ; preds = %1
  %8 = getelementptr inbounds nuw %"class.std::_Function_base", ptr %3, i32 0, i32 1
  %9 = load ptr, ptr %8, align 8, !tbaa !257
  %10 = getelementptr inbounds nuw %"class.std::_Function_base", ptr %3, i32 0, i32 0
  %11 = getelementptr inbounds nuw %"class.std::_Function_base", ptr %3, i32 0, i32 0
  %12 = invoke noundef zeroext i1 %9(ptr noundef nonnull align 8 dereferenceable(16) %10, ptr noundef nonnull align 8 dereferenceable(16) %11, i32 noundef 3)
          to label %13 unwind label %15

13:                                               ; preds = %7
  br label %14

14:                                               ; preds = %13, %1
  ret void

15:                                               ; preds = %7
  %16 = landingpad { ptr, i32 }
          catch ptr null
  %17 = extractvalue { ptr, i32 } %16, 0
  call void @__clang_call_terminate(ptr %17) #24
  unreachable
}

; Function Attrs: mustprogress uwtable
define linkonce_odr void @_ZNKSt8functionIFvS_IFvvEEEEclES1_(ptr noundef nonnull align 8 dereferenceable(32) %0, ptr noundef %1) #1 comdat align 2 {
  %3 = alloca ptr, align 8
  %4 = alloca ptr, align 8
  store ptr %0, ptr %3, align 8, !tbaa !39
  store ptr %1, ptr %4, align 8, !tbaa !1010
  %5 = load ptr, ptr %3, align 8
  %6 = call noundef zeroext i1 @_ZNKSt14_Function_base8_M_emptyEv(ptr noundef nonnull align 8 dereferenceable(24) %5)
  br i1 %6, label %7, label %8

7:                                                ; preds = %2
  call void @_ZSt25__throw_bad_function_callv() #23
  unreachable

8:                                                ; preds = %2
  %9 = getelementptr inbounds nuw %"class.std::function.519", ptr %5, i32 0, i32 1
  %10 = load ptr, ptr %9, align 8, !tbaa !1012
  %11 = getelementptr inbounds nuw %"class.std::_Function_base", ptr %5, i32 0, i32 0
  call void %10(ptr noundef nonnull align 8 dereferenceable(16) %11, ptr noundef nonnull align 8 dereferenceable(32) %1)
  ret void
}

; Function Attrs: mustprogress nounwind uwtable
define internal void @"_ZNSt8functionIFvvEEC2IZN3gmx14MttkBoxScaling12scheduleTaskEldRKS_IFvS1_EEE3$_0vEEOT_"(ptr noundef nonnull align 8 dereferenceable(32) %0, ptr noundef nonnull align 8 dereferenceable(8) %1) unnamed_addr #2 align 2 {
  %3 = alloca ptr, align 8
  %4 = alloca ptr, align 8
  store ptr %0, ptr %3, align 8, !tbaa !1010
  store ptr %1, ptr %4, align 8, !tbaa !223
  %5 = load ptr, ptr %3, align 8
  %6 = getelementptr inbounds i8, ptr %5, i64 0
  call void @llvm.memset.p0.i64(ptr align 8 %6, i8 0, i64 24, i1 false)
  call void @_ZNSt14_Function_baseC2Ev(ptr noundef nonnull align 8 dereferenceable(24) %5) #21
  %7 = getelementptr inbounds nuw %"class.std::function.522", ptr %5, i32 0, i32 1
  store ptr null, ptr %7, align 8, !tbaa !1014
  %8 = load ptr, ptr %4, align 8, !tbaa !223
  %9 = call noundef zeroext i1 @"_ZNSt14_Function_base13_Base_managerIZN3gmx14MttkBoxScaling12scheduleTaskEldRKSt8functionIFvS3_IFvvEEEEE3$_0E21_M_not_empty_functionISA_EEbRKT_"(ptr noundef nonnull align 8 dereferenceable(8) %8) #21
  br i1 %9, label %10, label %15

10:                                               ; preds = %2
  %11 = getelementptr inbounds nuw %"class.std::_Function_base", ptr %5, i32 0, i32 0
  %12 = load ptr, ptr %4, align 8, !tbaa !223
  call void @"_ZNSt14_Function_base13_Base_managerIZN3gmx14MttkBoxScaling12scheduleTaskEldRKSt8functionIFvS3_IFvvEEEEE3$_0E15_M_init_functorISA_EEvRSt9_Any_dataOT_"(ptr noundef nonnull align 8 dereferenceable(16) %11, ptr noundef nonnull align 8 dereferenceable(8) %12) #21
  %13 = getelementptr inbounds nuw %"class.std::function.522", ptr %5, i32 0, i32 1
  store ptr @"_ZNSt17_Function_handlerIFvvEZN3gmx14MttkBoxScaling12scheduleTaskEldRKSt8functionIFvS3_IS0_EEEE3$_0E9_M_invokeERKSt9_Any_data", ptr %13, align 8, !tbaa !1014
  %14 = getelementptr inbounds nuw %"class.std::_Function_base", ptr %5, i32 0, i32 1
  store ptr @"_ZNSt17_Function_handlerIFvvEZN3gmx14MttkBoxScaling12scheduleTaskEldRKSt8functionIFvS3_IS0_EEEE3$_0E10_M_managerERSt9_Any_dataRKSB_St18_Manager_operation", ptr %14, align 8, !tbaa !257
  br label %15

15:                                               ; preds = %10, %2
  ret void
}

; Function Attrs: mustprogress uwtable
define void @_ZN3gmx14MttkBoxScaling12scheduleTaskEldRKSt8functionIFvS1_IFvvEEEE(ptr noundef nonnull align 8 dereferenceable(32) %0, i64 noundef %1, double noundef %2, ptr noundef nonnull align 8 dereferenceable(32) %3) unnamed_addr #1 align 2 personality ptr @__gxx_personality_v0 {
  %5 = alloca ptr, align 8
  %6 = alloca i64, align 8
  %7 = alloca double, align 8
  %8 = alloca ptr, align 8
  %9 = alloca %"class.std::function.522", align 8
  %10 = alloca %class.anon.557, align 8
  %11 = alloca ptr, align 8
  %12 = alloca i32, align 4
  store ptr %0, ptr %5, align 8, !tbaa !56
  store i64 %1, ptr %6, align 8, !tbaa !35
  store double %2, ptr %7, align 8, !tbaa !37
  store ptr %3, ptr %8, align 8, !tbaa !39
  %13 = load ptr, ptr %5, align 8
  %14 = load ptr, ptr %8, align 8, !tbaa !39
  call void @llvm.lifetime.start.p0(i64 8, ptr %10) #21
  %15 = getelementptr inbounds nuw %class.anon.557, ptr %10, i32 0, i32 0
  store ptr %13, ptr %15, align 8, !tbaa !58
  call void @"_ZNSt8functionIFvvEEC2IZN3gmx14MttkBoxScaling12scheduleTaskEldRKS_IFvS1_EEE3$_0vEEOT_"(ptr noundef nonnull align 8 dereferenceable(32) %9, ptr noundef nonnull align 8 dereferenceable(8) %10) #21
  invoke void @_ZNKSt8functionIFvS_IFvvEEEEclES1_(ptr noundef nonnull align 8 dereferenceable(32) %14, ptr noundef %9)
          to label %16 unwind label %17

16:                                               ; preds = %4
  call void @_ZNSt14_Function_baseD2Ev(ptr noundef nonnull align 8 dereferenceable(32) %9) #21
  call void @llvm.lifetime.end.p0(i64 8, ptr %10) #21
  ret void

17:                                               ; preds = %4
  %18 = landingpad { ptr, i32 }
          cleanup
  %19 = extractvalue { ptr, i32 } %18, 0
  store ptr %19, ptr %11, align 8
  %20 = extractvalue { ptr, i32 } %18, 1
  store i32 %20, ptr %12, align 4
  call void @_ZNSt14_Function_baseD2Ev(ptr noundef nonnull align 8 dereferenceable(32) %9) #21
  call void @llvm.lifetime.end.p0(i64 8, ptr %10) #21
  br label %21

21:                                               ; preds = %17
  %22 = load ptr, ptr %11, align 8
  %23 = load i32, ptr %12, align 4
  %24 = insertvalue { ptr, i32 } poison, ptr %22, 0
  %25 = insertvalue { ptr, i32 } %24, i32 %23, 1
  resume { ptr, i32 } %25
}