; Function Attrs: mustprogress uwtable
define void @_ZN3gmx14MttkBoxScaling12scheduleTaskEldRKSt8functionIFvS1_IFvvEEEE(ptr noundef nonnull align 8 dereferenceable(32) %0, i64 %1, double %2, ptr noundef nonnull align 8 dereferenceable(32) %3) unnamed_addr #1 align 2 personality ptr @__gxx_personality_v0 {
  %5 = alloca %"class.std::function.522", align 8
  %6 = ptrtoint ptr %0 to i64
  %7 = getelementptr inbounds nuw i8, ptr %5, i64 16
  %8 = getelementptr inbounds nuw i8, ptr %5, i64 24
  %9 = getelementptr inbounds nuw i8, ptr %5, i64 8
  store i64 0, ptr %9, align 8
  store i64 %6, ptr %5, align 8, !tbaa !71
  store ptr @"_ZNSt17_Function_handlerIFvvEZN3gmx14MttkBoxScaling12scheduleTaskEldRKSt8functionIFvS3_IS0_EEEE3$_0E9_M_invokeERKSt9_Any_data", ptr %8, align 8, !tbaa !54
  store ptr @"_ZNSt17_Function_handlerIFvvEZN3gmx14MttkBoxScaling12scheduleTaskEldRKSt8functionIFvS3_IS0_EEEE3$_0E10_M_managerERSt9_Any_dataRKSB_St18_Manager_operation", ptr %7, align 8, !tbaa !57
  %10 = getelementptr inbounds nuw i8, ptr %3, i64 16
  %11 = load ptr, ptr %10, align 8, !tbaa !57
  %.not.i.i = icmp eq ptr %11, null
  br i1 %.not.i.i, label %12, label %13

12:                                               ; preds = %4
  invoke void @_ZSt25__throw_bad_function_callv() #34
          to label %.noexc unwind label %22

.noexc:                                           ; preds = %12
  unreachable

13:                                               ; preds = %4
  %14 = getelementptr inbounds nuw i8, ptr %3, i64 24
  %15 = load ptr, ptr %14, align 8, !tbaa !58
  invoke void %15(ptr noundef nonnull align 8 dereferenceable(32) %3, ptr noundef nonnull align 8 dereferenceable(32) %5)
          to label %_ZNKSt8functionIFvS_IFvvEEEEclES1_.exit unwind label %22

_ZNKSt8functionIFvS_IFvvEEEEclES1_.exit:          ; preds = %13
  %16 = load ptr, ptr %7, align 8, !tbaa !57
  %.not.i = icmp eq ptr %16, null
  br i1 %.not.i, label %_ZNSt14_Function_baseD2Ev.exit, label %17

17:                                               ; preds = %_ZNKSt8functionIFvS_IFvvEEEEclES1_.exit
  %18 = invoke noundef zeroext i1 %16(ptr noundef nonnull align 8 dereferenceable(32) %5, ptr noundef nonnull align 8 dereferenceable(32) %5, i32 noundef 3)
          to label %_ZNSt14_Function_baseD2Ev.exit unwind label %19

19:                                               ; preds = %17
  %20 = landingpad { ptr, i32 }
          catch ptr null
  %21 = extractvalue { ptr, i32 } %20, 0
  call void @__clang_call_terminate(ptr %21) #35
  unreachable

_ZNSt14_Function_baseD2Ev.exit:                   ; preds = %_ZNKSt8functionIFvS_IFvvEEEEclES1_.exit, %17
  ret void

22:                                               ; preds = %13, %12
  %23 = landingpad { ptr, i32 }
          cleanup
  %24 = load ptr, ptr %7, align 8, !tbaa !57
  %.not.i4 = icmp eq ptr %24, null
  br i1 %.not.i4, label %_ZNSt14_Function_baseD2Ev.exit5, label %25

25:                                               ; preds = %22
  %26 = invoke noundef zeroext i1 %24(ptr noundef nonnull align 8 dereferenceable(32) %5, ptr noundef nonnull align 8 dereferenceable(32) %5, i32 noundef 3)
          to label %_ZNSt14_Function_baseD2Ev.exit5 unwind label %27

27:                                               ; preds = %25
  %28 = landingpad { ptr, i32 }
          catch ptr null
  %29 = extractvalue { ptr, i32 } %28, 0
  call void @__clang_call_terminate(ptr %29) #35
  unreachable

_ZNSt14_Function_baseD2Ev.exit5:                  ; preds = %22, %25
  resume { ptr, i32 } %23
}